; Function Attrs: mustprogress nofree norecurse nosync nounwind willreturn memory(read, inaccessiblemem: none) uwtable
define i64 @_ZNK8QuantLib34Gaussian1dFloatFloatSwaptionEngine18underlyingLastDateEv(ptr nocapture noundef nonnull readonly align 8 dereferenceable(1064) %this) unnamed_addr #14 align 2 {
entry:
  %_M_finish.i.i = getelementptr inbounds i8, ptr %this, i64 336
  %0 = load ptr, ptr %_M_finish.i.i, align 8, !tbaa !3
  %add.ptr.i.i = getelementptr inbounds i8, ptr %0, i64 -8
  %1 = load i64, ptr %add.ptr.i.i, align 8, !tbaa !30
  %_M_finish.i.i1 = getelementptr inbounds i8, ptr %this, i64 408
  %2 = load ptr, ptr %_M_finish.i.i1, align 8, !tbaa !3
  %add.ptr.i.i2 = getelementptr inbounds i8, ptr %2, i64 -8
  %3 = load i64, ptr %add.ptr.i.i2, align 8, !tbaa !30
  %retval.sroa.0.0.copyload = tail call i64 @llvm.smax.i64(i64 %3, i64 %1)
  ret i64 %retval.sroa.0.0.copyload
}